; Function Attrs: nounwind uwtable
define dso_local void @sentinelFailoverSelectSlave(ptr noundef captures(address_is_null) %0) local_unnamed_addr #0 {
  %2 = tail call ptr @sentinelSelectSlave(ptr noundef %0)
  %3 = icmp eq ptr %2, null
  br i1 %3, label %4, label %22

4:                                                ; preds = %1
  tail call void (i32, ptr, ptr, ptr, ...) @sentinelEvent(i32 noundef 3, ptr noundef nonnull @.str.432, ptr noundef %0, ptr noundef nonnull @.str.54)
  %5 = load i32, ptr %0, align 8, !tbaa !34
  %6 = and i32 %5, 64
  %.not.i = icmp eq i32 %6, 0
  br i1 %.not.i, label %7, label %8, !prof !144

7:                                                ; preds = %4
  tail call void @_serverAssert(ptr noundef nonnull @.str.442, ptr noundef nonnull @.str.21, i32 noundef 5340) #30
  tail call void @abort() #35
  unreachable

8:                                                ; preds = %4
  %9 = getelementptr inbounds nuw i8, ptr %0, i64 272
  %10 = load i32, ptr %9, align 8, !tbaa !169
  %11 = icmp slt i32 %10, 5
  br i1 %11, label %13, label %12, !prof !103

12:                                               ; preds = %8
  tail call void @_serverAssert(ptr noundef nonnull @.str.443, ptr noundef nonnull @.str.21, i32 noundef 5341) #30
  tail call void @abort() #35
  unreachable

13:                                               ; preds = %8
  %14 = and i32 %5, -2113
  store i32 %14, ptr %0, align 8, !tbaa !34
  store i32 0, ptr %9, align 8, !tbaa !169
  %15 = tail call i64 @mstime() #30
  %16 = getelementptr inbounds nuw i8, ptr %0, i64 280
  store i64 %15, ptr %16, align 8, !tbaa !243
  %17 = getelementptr inbounds nuw i8, ptr %0, i64 312
  %18 = load ptr, ptr %17, align 8, !tbaa !36
  %.not8.i = icmp eq ptr %18, null
  br i1 %.not8.i, label %sentinelAbortFailover.exit, label %19

19:                                               ; preds = %13
  %20 = load i32, ptr %18, align 8, !tbaa !34
  %21 = and i32 %20, -129
  store i32 %21, ptr %18, align 8, !tbaa !34
  store ptr null, ptr %17, align 8, !tbaa !36
  br label %sentinelAbortFailover.exit

22:                                               ; preds = %1
  tail call void (i32, ptr, ptr, ptr, ...) @sentinelEvent(i32 noundef 3, ptr noundef nonnull @.str.433, ptr noundef nonnull %2, ptr noundef nonnull @.str.54)
  %23 = load i32, ptr %2, align 8, !tbaa !34
  %24 = or i32 %23, 128
  store i32 %24, ptr %2, align 8, !tbaa !34
  %25 = getelementptr inbounds nuw i8, ptr %0, i64 312
  store ptr %2, ptr %25, align 8, !tbaa !36
  %26 = getelementptr inbounds nuw i8, ptr %0, i64 272
  store i32 3, ptr %26, align 8, !tbaa !169
  %27 = tail call i64 @mstime() #30
  %28 = getelementptr inbounds nuw i8, ptr %0, i64 280
  store i64 %27, ptr %28, align 8, !tbaa !243
  tail call void (i32, ptr, ptr, ptr, ...) @sentinelEvent(i32 noundef 2, ptr noundef nonnull @.str.434, ptr noundef nonnull %2, ptr noundef nonnull @.str.54)
  br label %sentinelAbortFailover.exit

sentinelAbortFailover.exit:                       ; preds = %19, %13, %22
  ret void
}